target datalayout = "e-m:e-p270:32:32-p271:32:32-p272:64:64-i64:64-i128:128-f80:128-n8:16:32:64-S128"
target triple = "x86_64-pc-linux-gnu"

%struct._lv_obj_t = type { ptr, ptr, ptr, ptr, ptr, %struct.lv_area_t, i32, i16, i16 }
%struct.lv_area_t = type { i32, i32, i32, i32 }

; Function Attrs: nounwind uwtable
define zeroext i1 @lv_obj_has_flag_any(ptr noundef %0, i32 noundef %1) #0 {
  %3 = alloca ptr, align 8
  %4 = alloca i32, align 4
  store ptr %0, ptr %3, align 8, !tbaa !8
  store i32 %1, ptr %4, align 4, !tbaa !17
  br label %5

5:                                                ; preds = %2
  %6 = load ptr, ptr %3, align 8, !tbaa !8
  %7 = icmp ne ptr %6, null
  br i1 %7, label %12, label %8

8:                                                ; preds = %5
  br label %9

9:                                                ; preds = %8
  br label %10

10:                                               ; preds = %9
  br label %11

11:                                               ; preds = %10, %11
  br label %11

12:                                               ; preds = %5
  br label %13

13:                                               ; preds = %12
  %14 = load ptr, ptr %3, align 8, !tbaa !8
  %15 = getelementptr inbounds nuw %struct._lv_obj_t, ptr %14, i32 0, i32 6
  %16 = load i32, ptr %15, align 8, !tbaa !22
  %17 = load i32, ptr %4, align 4, !tbaa !17
  %18 = and i32 %16, %17
  %19 = icmp ne i32 %18, 0
  %20 = xor i1 %19, true
  %21 = xor i1 %20, true
  ret i1 %21
}

; Function Attrs: nounwind uwtable
define void @lv_obj_remove_flag(ptr noundef %0, i32 noundef %1) #0 {
  %3 = alloca ptr, align 8
  %4 = alloca i32, align 4
  %5 = alloca i8, align 1
  %6 = alloca %struct.lv_area_t, align 4
  %7 = alloca %struct.lv_area_t, align 4
  store ptr %0, ptr %3, align 8, !tbaa !8
  store i32 %1, ptr %4, align 4, !tbaa !17
  br label %8

8:                                                ; preds = %2
  %9 = load ptr, ptr %3, align 8, !tbaa !8
  %10 = icmp ne ptr %9, null
  br i1 %10, label %15, label %11

11:                                               ; preds = %8
  br label %12

12:                                               ; preds = %11
  br label %13

13:                                               ; preds = %12
  br label %14

14:                                               ; preds = %13, %14
  br label %14

15:                                               ; preds = %8
  br label %16

16:                                               ; preds = %15
  %17 = load ptr, ptr %3, align 8, !tbaa !8
  %18 = load i32, ptr %4, align 4, !tbaa !17
  %19 = call zeroext i1 @lv_obj_has_flag_any(ptr noundef %17, i32 noundef %18)
  br i1 %19, label %21, label %20

20:                                               ; preds = %16
  br label %63

21:                                               ; preds = %16
  call void @llvm.lifetime.start.p0(i64 1, ptr %5) #5
  %22 = load ptr, ptr %3, align 8, !tbaa !8
  %23 = call zeroext i1 @lv_obj_is_layout_positioned(ptr noundef %22)
  %24 = zext i1 %23 to i8
  store i8 %24, ptr %5, align 1, !tbaa !39
  %25 = load i32, ptr %4, align 4, !tbaa !17
  %26 = and i32 %25, 16
  %27 = icmp ne i32 %26, 0
  br i1 %27, label %28, label %32

28:                                               ; preds = %21
  call void @llvm.lifetime.start.p0(i64 16, ptr %6) #5
  call void @llvm.lifetime.start.p0(i64 16, ptr %7) #5
  %29 = load ptr, ptr %3, align 8, !tbaa !8
  call void @lv_obj_get_scrollbar_area(ptr noundef %29, ptr noundef %6, ptr noundef %7)
  %30 = load ptr, ptr %3, align 8, !tbaa !8
  call void @lv_obj_invalidate_area(ptr noundef %30, ptr noundef %6)
  %31 = load ptr, ptr %3, align 8, !tbaa !8
  call void @lv_obj_invalidate_area(ptr noundef %31, ptr noundef %7)
  call void @llvm.lifetime.end.p0(i64 16, ptr %7) #5
  call void @llvm.lifetime.end.p0(i64 16, ptr %6) #5
  br label %32

32:                                               ; preds = %28, %21
  %33 = load i32, ptr %4, align 4, !tbaa !17
  %34 = xor i32 %33, -1
  %35 = load ptr, ptr %3, align 8, !tbaa !8
  %36 = getelementptr inbounds nuw %struct._lv_obj_t, ptr %35, i32 0, i32 6
  %37 = load i32, ptr %36, align 8, !tbaa !22
  %38 = and i32 %37, %34
  store i32 %38, ptr %36, align 8, !tbaa !22
  %39 = load i32, ptr %4, align 4, !tbaa !17
  %40 = and i32 %39, 1
  %41 = icmp ne i32 %40, 0
  br i1 %41, label %42, label %47

42:                                               ; preds = %32
  %43 = load ptr, ptr %3, align 8, !tbaa !8
  call void @lv_obj_invalidate(ptr noundef %43)
  %44 = load ptr, ptr %3, align 8, !tbaa !8
  %45 = call ptr @lv_obj_get_parent(ptr noundef %44)
  call void @lv_obj_mark_layout_as_dirty(ptr noundef %45)
  %46 = load ptr, ptr %3, align 8, !tbaa !8
  call void @lv_obj_mark_layout_as_dirty(ptr noundef %46)
  br label %47

47:                                               ; preds = %42, %32
  %48 = load i8, ptr %5, align 1, !tbaa !39, !range !40, !noundef !41
  %49 = trunc i8 %48 to i1
  %50 = zext i1 %49 to i32
  %51 = load ptr, ptr %3, align 8, !tbaa !8
  %52 = call zeroext i1 @lv_obj_is_layout_positioned(ptr noundef %51)
  %53 = zext i1 %52 to i32
  %54 = icmp ne i32 %50, %53
  br i1 %54, label %59, label %55

55:                                               ; preds = %47
  %56 = load i32, ptr %4, align 4, !tbaa !17
  %57 = and i32 %56, 25165824
  %58 = icmp ne i32 %57, 0
  br i1 %58, label %59, label %62

59:                                               ; preds = %55, %47
  %60 = load ptr, ptr %3, align 8, !tbaa !8
  %61 = call ptr @lv_obj_get_parent(ptr noundef %60)
  call void @lv_obj_mark_layout_as_dirty(ptr noundef %61)
  br label %62

62:                                               ; preds = %59, %55
  call void @llvm.lifetime.end.p0(i64 1, ptr %5) #5
  br label %63

63:                                               ; preds = %62, %20
  ret void
}