; Function Attrs: nounwind uwtable
define void @lv_obj_remove_flag(ptr noundef %0, i32 noundef %1) local_unnamed_addr #0 {
  %3 = alloca %struct.lv_area_t, align 4
  %4 = alloca %struct.lv_area_t, align 4
  %.not = icmp eq ptr %0, null
  br i1 %.not, label %.preheader, label %lv_obj_has_flag_any.exit

.preheader:                                       ; preds = %2, %.preheader
  br label %.preheader

lv_obj_has_flag_any.exit:                         ; preds = %2
  %5 = getelementptr inbounds nuw i8, ptr %0, i64 56
  %6 = load i32, ptr %5, align 8, !tbaa !19
  %7 = and i32 %6, %1
  %.not22 = icmp eq i32 %7, 0
  br i1 %.not22, label %25, label %8

8:                                                ; preds = %lv_obj_has_flag_any.exit
  %9 = tail call zeroext i1 @lv_obj_is_layout_positioned(ptr noundef nonnull %0) #8
  %10 = and i32 %1, 16
  %.not17 = icmp eq i32 %10, 0
  br i1 %.not17, label %12, label %11

11:                                               ; preds = %8
  call void @llvm.lifetime.start.p0(i64 16, ptr nonnull %3) #8
  call void @llvm.lifetime.start.p0(i64 16, ptr nonnull %4) #8
  call void @lv_obj_get_scrollbar_area(ptr noundef nonnull %0, ptr noundef nonnull %3, ptr noundef nonnull %4) #8
  call void @lv_obj_invalidate_area(ptr noundef nonnull %0, ptr noundef nonnull %3) #8
  call void @lv_obj_invalidate_area(ptr noundef nonnull %0, ptr noundef nonnull %4) #8
  call void @llvm.lifetime.end.p0(i64 16, ptr nonnull %4) #8
  call void @llvm.lifetime.end.p0(i64 16, ptr nonnull %3) #8
  br label %12

12:                                               ; preds = %11, %8
  %13 = xor i32 %1, -1
  %14 = load i32, ptr %5, align 8, !tbaa !19
  %15 = and i32 %14, %13
  store i32 %15, ptr %5, align 8, !tbaa !19
  %16 = and i32 %1, 1
  %.not18 = icmp eq i32 %16, 0
  br i1 %.not18, label %19, label %17

17:                                               ; preds = %12
  call void @lv_obj_invalidate(ptr noundef nonnull %0) #8
  %18 = call ptr @lv_obj_get_parent(ptr noundef nonnull %0) #8
  call void @lv_obj_mark_layout_as_dirty(ptr noundef %18) #8
  call void @lv_obj_mark_layout_as_dirty(ptr noundef nonnull %0) #8
  br label %19

19:                                               ; preds = %17, %12
  %20 = call zeroext i1 @lv_obj_is_layout_positioned(ptr noundef nonnull %0) #8
  %21 = xor i1 %9, %20
  %22 = and i32 %1, 25165824
  %.not20 = icmp ne i32 %22, 0
  %or.cond.not = or i1 %.not20, %21
  br i1 %or.cond.not, label %23, label %25

23:                                               ; preds = %19
  %24 = call ptr @lv_obj_get_parent(ptr noundef nonnull %0) #8
  call void @lv_obj_mark_layout_as_dirty(ptr noundef %24) #8
  br label %25

25:                                               ; preds = %23, %19, %lv_obj_has_flag_any.exit
  ret void
}